; Function Attrs: nofree norecurse nosync nounwind memory(argmem: readwrite) uwtable
define internal void @remap4_8bit_line_c(ptr noundef writeonly captures(none) %0, i32 noundef %1, ptr noundef readonly captures(none) %2, i64 noundef %3, ptr noundef readonly captures(none) %4, ptr noundef readonly captures(none) %5, ptr noundef readonly captures(none) %6) #1 {
  %8 = icmp sgt i32 %1, 0
  br i1 %8, label %.lr.ph.preheader, label %._crit_edge

.lr.ph.preheader:                                 ; preds = %7
  %wide.trip.count = zext nneg i32 %1 to i64
  br label %.lr.ph

._crit_edge:                                      ; preds = %13, %7
  ret void

.lr.ph:                                           ; preds = %.lr.ph.preheader, %13
  %indvars.iv44 = phi i64 [ 0, %.lr.ph.preheader ], [ %indvars.iv.next45, %13 ]
  %9 = shl nsw i64 %indvars.iv44, 4
  %10 = getelementptr inbounds nuw i16, ptr %4, i64 %9
  %11 = getelementptr inbounds nuw i16, ptr %5, i64 %9
  %12 = getelementptr inbounds nuw i16, ptr %6, i64 %9
  br label %18

13:                                               ; preds = %20
  %14 = ashr i32 %38, 14
  %.not.i = icmp ult i32 %14, 256
  %isnotneg.i = icmp sgt i32 %14, -1
  %15 = sext i1 %isnotneg.i to i8
  %16 = trunc nuw i32 %14 to i8
  %.0.i = select i1 %.not.i, i8 %16, i8 %15
  %17 = getelementptr inbounds nuw i8, ptr %0, i64 %indvars.iv44
  store i8 %.0.i, ptr %17, align 1, !tbaa !17
  %indvars.iv.next45 = add nuw nsw i64 %indvars.iv44, 1
  %exitcond47.not = icmp eq i64 %indvars.iv.next45, %wide.trip.count
  br i1 %exitcond47.not, label %._crit_edge, label %.lr.ph, !llvm.loop !33

18:                                               ; preds = %.lr.ph, %20
  %indvars.iv40 = phi i64 [ 0, %.lr.ph ], [ %indvars.iv.next41, %20 ]
  %.03236 = phi i32 [ 0, %.lr.ph ], [ %38, %20 ]
  %19 = shl nuw nsw i64 %indvars.iv40, 2
  br label %21

20:                                               ; preds = %21
  %indvars.iv.next41 = add nuw nsw i64 %indvars.iv40, 1
  %exitcond43.not = icmp eq i64 %indvars.iv.next41, 4
  br i1 %exitcond43.not, label %13, label %18, !llvm.loop !34

21:                                               ; preds = %18, %21
  %indvars.iv = phi i64 [ 0, %18 ], [ %indvars.iv.next, %21 ]
  %.134 = phi i32 [ %.03236, %18 ], [ %38, %21 ]
  %22 = add nuw nsw i64 %indvars.iv, %19
  %23 = getelementptr inbounds nuw i16, ptr %12, i64 %22
  %24 = load i16, ptr %23, align 2, !tbaa !15
  %25 = sext i16 %24 to i32
  %26 = getelementptr inbounds nuw i16, ptr %11, i64 %22
  %27 = load i16, ptr %26, align 2, !tbaa !15
  %28 = sext i16 %27 to i64
  %29 = mul nsw i64 %3, %28
  %30 = getelementptr inbounds nuw i16, ptr %10, i64 %22
  %31 = load i16, ptr %30, align 2, !tbaa !15
  %32 = sext i16 %31 to i64
  %33 = getelementptr i8, ptr %2, i64 %29
  %34 = getelementptr i8, ptr %33, i64 %32
  %35 = load i8, ptr %34, align 1, !tbaa !17
  %36 = zext i8 %35 to i32
  %37 = mul nsw i32 %36, %25
  %38 = add nsw i32 %37, %.134
  %indvars.iv.next = add nuw nsw i64 %indvars.iv, 1
  %exitcond.not = icmp eq i64 %indvars.iv.next, 4
  br i1 %exitcond.not, label %20, label %21, !llvm.loop !35
}